target datalayout = "e-m:e-p270:32:32-p271:32:32-p272:64:64-i64:64-i128:128-f80:128-n8:16:32:64-S128"
target triple = "x86_64-pc-linux-gnu"

%"struct.arrow::compute::FunctionDoc" = type <{ %"class.std::__cxx11::basic_string", %"class.std::__cxx11::basic_string", %"class.std::vector", %"class.std::__cxx11::basic_string", i8, [7 x i8] }>
%"class.std::vector" = type { %"struct.std::_Vector_base" }
%"struct.std::_Vector_base" = type { %"struct.std::_Vector_base<std::__cxx11::basic_string<char>, std::allocator<std::__cxx11::basic_string<char>>>::_Vector_impl" }
%"struct.std::_Vector_base<std::__cxx11::basic_string<char>, std::allocator<std::__cxx11::basic_string<char>>>::_Vector_impl" = type { %"struct.std::_Vector_base<std::__cxx11::basic_string<char>, std::allocator<std::__cxx11::basic_string<char>>>::_Vector_impl_data" }
%"struct.std::_Vector_base<std::__cxx11::basic_string<char>, std::allocator<std::__cxx11::basic_string<char>>>::_Vector_impl_data" = type { ptr, ptr, ptr }
%"class.std::__cxx11::basic_string" = type { %"struct.std::__cxx11::basic_string<char>::_Alloc_hider", i64, %union.anon }
%"struct.std::__cxx11::basic_string<char>::_Alloc_hider" = type { ptr }
%union.anon = type { i64, [8 x i8] }
%"class.arrow::Status" = type { ptr }
%"struct.arrow::compute::Arity" = type <{ i32, i8, [3 x i8] }>
%"class.arrow::compute::Function" = type { ptr, %"class.std::__cxx11::basic_string", i32, %"struct.arrow::compute::Arity", [4 x i8], %"struct.arrow::compute::FunctionDoc", ptr }

@.str.2 = private unnamed_addr constant [11 x i8] c"Function '\00", align 1
@.str.3 = private unnamed_addr constant [38 x i8] c"' has no kernel matching input types \00", align 1

; Function Attrs: mustprogress nounwind uwtable
define linkonce_odr void @_ZNSt15__new_allocatorIcE10deallocateEPcm(ptr noundef nonnull align 1 dereferenceable(1) %0, ptr noundef %1, i64 noundef %2) #0 comdat align 2 {
  %4 = alloca ptr, align 8
  %5 = alloca ptr, align 8
  %6 = alloca i64, align 8
  store ptr %0, ptr %4, align 8, !tbaa !315
  store ptr %1, ptr %5, align 8, !tbaa !59
  store i64 %2, ptr %6, align 8, !tbaa !43
  %7 = load ptr, ptr %5, align 8, !tbaa !59
  %8 = load i64, ptr %6, align 8, !tbaa !43
  %9 = mul i64 %8, 1
  call void @_ZdlPvm(ptr noundef %7, i64 noundef %9) #21
  ret void
}

; Function Attrs: mustprogress nounwind uwtable
define linkonce_odr noundef ptr @_ZNSt19__ptr_traits_ptr_toIPKcS0_Lb0EE10pointer_toERS0_(ptr noundef nonnull align 1 dereferenceable(1) %0) #0 comdat align 2 {
  %2 = alloca ptr, align 8
  store ptr %0, ptr %2, align 8, !tbaa !59
  %3 = load ptr, ptr %2, align 8, !tbaa !59
  ret ptr %3
}

; Function Attrs: mustprogress uwtable
define linkonce_odr void @_ZNSt16allocator_traitsISaIcEE10deallocateERS0_Pcm(ptr noundef nonnull align 1 dereferenceable(1) %0, ptr noundef %1, i64 noundef %2) #1 comdat align 2 {
  %4 = alloca ptr, align 8
  %5 = alloca ptr, align 8
  %6 = alloca i64, align 8
  store ptr %0, ptr %4, align 8, !tbaa !310
  store ptr %1, ptr %5, align 8, !tbaa !59
  store i64 %2, ptr %6, align 8, !tbaa !43
  %7 = load ptr, ptr %4, align 8, !tbaa !310
  %8 = load ptr, ptr %5, align 8, !tbaa !59
  %9 = load i64, ptr %6, align 8, !tbaa !43
  call void @_ZNSt15__new_allocatorIcE10deallocateEPcm(ptr noundef nonnull align 1 dereferenceable(1) %7, ptr noundef %8, i64 noundef %9)
  ret void
}

; Function Attrs: mustprogress nounwind uwtable
define available_externally noundef nonnull align 1 dereferenceable(1) ptr @_ZNSt7__cxx1112basic_stringIcSt11char_traitsIcESaIcEE16_M_get_allocatorEv(ptr noundef nonnull align 8 dereferenceable(32) %0) #0 align 2 {
  %2 = alloca ptr, align 8
  store ptr %0, ptr %2, align 8, !tbaa !89
  %3 = load ptr, ptr %2, align 8
  %4 = getelementptr inbounds nuw %"class.std::__cxx11::basic_string", ptr %3, i32 0, i32 0
  ret ptr %4
}

; Function Attrs: mustprogress nounwind uwtable
define available_externally noundef ptr @_ZNKSt7__cxx1112basic_stringIcSt11char_traitsIcESaIcEE13_M_local_dataEv(ptr noundef nonnull align 8 dereferenceable(32) %0) #0 align 2 {
  %2 = alloca ptr, align 8
  store ptr %0, ptr %2, align 8, !tbaa !89
  %3 = load ptr, ptr %2, align 8
  %4 = getelementptr inbounds nuw %"class.std::__cxx11::basic_string", ptr %3, i32 0, i32 2
  %5 = getelementptr inbounds [16 x i8], ptr %4, i64 0, i64 0
  %6 = call noundef ptr @_ZNSt19__ptr_traits_ptr_toIPKcS0_Lb0EE10pointer_toERS0_(ptr noundef nonnull align 1 dereferenceable(1) %5) #9
  ret ptr %6
}

; Function Attrs: mustprogress nounwind uwtable
define available_externally noundef ptr @_ZNKSt7__cxx1112basic_stringIcSt11char_traitsIcESaIcEE7_M_dataEv(ptr noundef nonnull align 8 dereferenceable(32) %0) #0 align 2 {
  %2 = alloca ptr, align 8
  store ptr %0, ptr %2, align 8, !tbaa !89
  %3 = load ptr, ptr %2, align 8
  %4 = getelementptr inbounds nuw %"class.std::__cxx11::basic_string", ptr %3, i32 0, i32 0
  %5 = getelementptr inbounds nuw %"struct.std::__cxx11::basic_string<char>::_Alloc_hider", ptr %4, i32 0, i32 0
  %6 = load ptr, ptr %5, align 8, !tbaa !318
  ret ptr %6
}

; Function Attrs: mustprogress nounwind uwtable
define available_externally void @_ZNSt7__cxx1112basic_stringIcSt11char_traitsIcESaIcEE10_M_destroyEm(ptr noundef nonnull align 8 dereferenceable(32) %0, i64 noundef %1) #0 align 2 personality ptr @__gxx_personality_v0 {
  %3 = alloca ptr, align 8
  %4 = alloca i64, align 8
  store ptr %0, ptr %3, align 8, !tbaa !89
  store i64 %1, ptr %4, align 8, !tbaa !43
  %5 = load ptr, ptr %3, align 8
  %6 = invoke noundef nonnull align 1 dereferenceable(1) ptr @_ZNSt7__cxx1112basic_stringIcSt11char_traitsIcESaIcEE16_M_get_allocatorEv(ptr noundef nonnull align 8 dereferenceable(32) %5)
          to label %7 unwind label %12

7:                                                ; preds = %2
  %8 = call noundef ptr @_ZNKSt7__cxx1112basic_stringIcSt11char_traitsIcESaIcEE7_M_dataEv(ptr noundef nonnull align 8 dereferenceable(32) %5)
  %9 = load i64, ptr %4, align 8, !tbaa !43
  %10 = add i64 %9, 1
  invoke void @_ZNSt16allocator_traitsISaIcEE10deallocateERS0_Pcm(ptr noundef nonnull align 1 dereferenceable(1) %6, ptr noundef %8, i64 noundef %10)
          to label %11 unwind label %12

11:                                               ; preds = %7
  ret void

12:                                               ; preds = %7, %2
  %13 = landingpad { ptr, i32 }
          catch ptr null
  %14 = extractvalue { ptr, i32 } %13, 0
  call void @__clang_call_terminate(ptr %14) #20
  unreachable
}

; Function Attrs: mustprogress uwtable
define available_externally noundef zeroext i1 @_ZNKSt7__cxx1112basic_stringIcSt11char_traitsIcESaIcEE11_M_is_localEv(ptr noundef nonnull align 8 dereferenceable(32) %0) #1 align 2 {
  %2 = alloca i1, align 1
  %3 = alloca ptr, align 8
  store ptr %0, ptr %3, align 8, !tbaa !89
  %4 = load ptr, ptr %3, align 8
  %5 = call noundef ptr @_ZNKSt7__cxx1112basic_stringIcSt11char_traitsIcESaIcEE7_M_dataEv(ptr noundef nonnull align 8 dereferenceable(32) %4)
  %6 = call noundef ptr @_ZNKSt7__cxx1112basic_stringIcSt11char_traitsIcESaIcEE13_M_local_dataEv(ptr noundef nonnull align 8 dereferenceable(32) %4)
  %7 = icmp eq ptr %5, %6
  br i1 %7, label %8, label %14

8:                                                ; preds = %1
  %9 = getelementptr inbounds nuw %"class.std::__cxx11::basic_string", ptr %4, i32 0, i32 1
  %10 = load i64, ptr %9, align 8, !tbaa !317
  %11 = icmp ugt i64 %10, 15
  br i1 %11, label %12, label %13

12:                                               ; preds = %8
  unreachable

13:                                               ; preds = %8
  store i1 true, ptr %2, align 1
  br label %15

14:                                               ; preds = %1
  store i1 false, ptr %2, align 1
  br label %15

15:                                               ; preds = %14, %13
  %16 = load i1, ptr %2, align 1
  ret i1 %16
}

; Function Attrs: noinline noreturn nounwind uwtable
define linkonce_odr hidden void @__clang_call_terminate(ptr noundef %0) #12 comdat {
  %2 = call ptr @__cxa_begin_catch(ptr %0) #9
  call void @_ZSt9terminatev() #20
  unreachable
}

; Function Attrs: mustprogress nounwind uwtable
define linkonce_odr void @_ZNSt15__new_allocatorIcED2Ev(ptr noundef nonnull align 1 dereferenceable(1) %0) unnamed_addr #0 comdat align 2 {
  %2 = alloca ptr, align 8
  store ptr %0, ptr %2, align 8, !tbaa !315
  ret void
}

; Function Attrs: mustprogress uwtable
define available_externally void @_ZNSt7__cxx1112basic_stringIcSt11char_traitsIcESaIcEE10_M_disposeEv(ptr noundef nonnull align 8 dereferenceable(32) %0) #1 align 2 {
  %2 = alloca ptr, align 8
  store ptr %0, ptr %2, align 8, !tbaa !89
  %3 = load ptr, ptr %2, align 8
  %4 = call noundef zeroext i1 @_ZNKSt7__cxx1112basic_stringIcSt11char_traitsIcESaIcEE11_M_is_localEv(ptr noundef nonnull align 8 dereferenceable(32) %3)
  br i1 %4, label %8, label %5

5:                                                ; preds = %1
  %6 = getelementptr inbounds nuw %"class.std::__cxx11::basic_string", ptr %3, i32 0, i32 2
  %7 = load i64, ptr %6, align 8, !tbaa !22
  call void @_ZNSt7__cxx1112basic_stringIcSt11char_traitsIcESaIcEE10_M_destroyEm(ptr noundef nonnull align 8 dereferenceable(32) %3, i64 noundef %7) #9
  br label %8

8:                                                ; preds = %5, %1
  ret void
}

; Function Attrs: mustprogress uwtable
define linkonce_odr void @_ZN5arrow6Status8FromArgsIJRA11_KcRKNSt7__cxx1112basic_stringIcSt11char_traitsIcESaIcEEERA38_S2_SA_EEES0_NS_10StatusCodeEDpOT_(ptr dead_on_unwind noalias writable sret(%"class.arrow::Status") align 8 %0, i8 noundef signext %1, ptr noundef nonnull align 1 dereferenceable(11) %2, ptr noundef nonnull align 8 dereferenceable(32) %3, ptr noundef nonnull align 1 dereferenceable(38) %4, ptr noundef nonnull align 8 dereferenceable(32) %5) #1 comdat align 2 personality ptr @__gxx_personality_v0 {
  %7 = alloca ptr, align 8
  %8 = alloca i8, align 1
  %9 = alloca ptr, align 8
  %10 = alloca ptr, align 8
  %11 = alloca ptr, align 8
  %12 = alloca ptr, align 8
  %13 = alloca %"class.std::__cxx11::basic_string", align 8
  %14 = alloca ptr, align 8
  %15 = alloca i32, align 4
  store ptr %0, ptr %7, align 8
  store i8 %1, ptr %8, align 1, !tbaa !332
  store ptr %2, ptr %9, align 8, !tbaa !59
  store ptr %3, ptr %10, align 8, !tbaa !89
  store ptr %4, ptr %11, align 8, !tbaa !59
  store ptr %5, ptr %12, align 8, !tbaa !89
  %16 = load i8, ptr %8, align 1, !tbaa !332
  call void @llvm.lifetime.start.p0(i64 32, ptr %13) #9
  %17 = load ptr, ptr %9, align 8, !tbaa !59
  %18 = load ptr, ptr %10, align 8, !tbaa !89
  %19 = load ptr, ptr %11, align 8, !tbaa !59
  %20 = load ptr, ptr %12, align 8, !tbaa !89
  call void @_ZN5arrow4util13StringBuilderIJRA11_KcRKNSt7__cxx1112basic_stringIcSt11char_traitsIcESaIcEEERA38_S2_SA_EEESA_DpOT_(ptr dead_on_unwind writable sret(%"class.std::__cxx11::basic_string") align 8 %13, ptr noundef nonnull align 1 dereferenceable(11) %17, ptr noundef nonnull align 8 dereferenceable(32) %18, ptr noundef nonnull align 1 dereferenceable(38) %19, ptr noundef nonnull align 8 dereferenceable(32) %20)
  invoke void @_ZN5arrow6StatusC1ENS_10StatusCodeERKNSt7__cxx1112basic_stringIcSt11char_traitsIcESaIcEEE(ptr noundef nonnull align 8 dereferenceable(8) %0, i8 noundef signext %16, ptr noundef nonnull align 8 dereferenceable(32) %13)
          to label %21 unwind label %22

21:                                               ; preds = %6
  call void @_ZNSt7__cxx1112basic_stringIcSt11char_traitsIcESaIcEED2Ev(ptr noundef nonnull align 8 dereferenceable(32) %13) #9
  call void @llvm.lifetime.end.p0(i64 32, ptr %13) #9
  ret void

22:                                               ; preds = %6
  %23 = landingpad { ptr, i32 }
          cleanup
  %24 = extractvalue { ptr, i32 } %23, 0
  store ptr %24, ptr %14, align 8
  %25 = extractvalue { ptr, i32 } %23, 1
  store i32 %25, ptr %15, align 4
  call void @_ZNSt7__cxx1112basic_stringIcSt11char_traitsIcESaIcEED2Ev(ptr noundef nonnull align 8 dereferenceable(32) %13) #9
  call void @llvm.lifetime.end.p0(i64 32, ptr %13) #9
  br label %26

26:                                               ; preds = %22
  %27 = load ptr, ptr %14, align 8
  %28 = load i32, ptr %15, align 4
  %29 = insertvalue { ptr, i32 } poison, ptr %27, 0
  %30 = insertvalue { ptr, i32 } %29, i32 %28, 1
  resume { ptr, i32 } %30
}

; Function Attrs: mustprogress nounwind uwtable
define available_externally void @_ZNSt7__cxx1112basic_stringIcSt11char_traitsIcESaIcEED2Ev(ptr noundef nonnull align 8 dereferenceable(32) %0) unnamed_addr #0 align 2 personality ptr @__gxx_personality_v0 {
  %2 = alloca ptr, align 8
  store ptr %0, ptr %2, align 8, !tbaa !89
  %3 = load ptr, ptr %2, align 8
  invoke void @_ZNSt7__cxx1112basic_stringIcSt11char_traitsIcESaIcEE10_M_disposeEv(ptr noundef nonnull align 8 dereferenceable(32) %3)
          to label %4 unwind label %6

4:                                                ; preds = %1
  %5 = getelementptr inbounds nuw %"class.std::__cxx11::basic_string", ptr %3, i32 0, i32 0
  call void @_ZNSt15__new_allocatorIcED2Ev(ptr noundef nonnull align 8 dereferenceable(8) %5) #9
  ret void

6:                                                ; preds = %1
  %7 = landingpad { ptr, i32 }
          catch ptr null
  %8 = extractvalue { ptr, i32 } %7, 0
  call void @__clang_call_terminate(ptr %8) #20
  unreachable
}

; Function Attrs: mustprogress uwtable
define linkonce_odr void @_ZN5arrow6Status14NotImplementedIJRA11_KcRKNSt7__cxx1112basic_stringIcSt11char_traitsIcESaIcEEERA38_S2_SA_EEES0_DpOT_(ptr dead_on_unwind noalias writable sret(%"class.arrow::Status") align 8 %0, ptr noundef nonnull align 1 dereferenceable(11) %1, ptr noundef nonnull align 8 dereferenceable(32) %2, ptr noundef nonnull align 1 dereferenceable(38) %3, ptr noundef nonnull align 8 dereferenceable(32) %4) #1 comdat align 2 {
  %6 = alloca ptr, align 8
  %7 = alloca ptr, align 8
  %8 = alloca ptr, align 8
  %9 = alloca ptr, align 8
  %10 = alloca ptr, align 8
  store ptr %0, ptr %6, align 8
  store ptr %1, ptr %7, align 8, !tbaa !59
  store ptr %2, ptr %8, align 8, !tbaa !89
  store ptr %3, ptr %9, align 8, !tbaa !59
  store ptr %4, ptr %10, align 8, !tbaa !89
  %11 = load ptr, ptr %7, align 8, !tbaa !59
  %12 = load ptr, ptr %8, align 8, !tbaa !89
  %13 = load ptr, ptr %9, align 8, !tbaa !59
  %14 = load ptr, ptr %10, align 8, !tbaa !89
  call void @_ZN5arrow6Status8FromArgsIJRA11_KcRKNSt7__cxx1112basic_stringIcSt11char_traitsIcESaIcEEERA38_S2_SA_EEES0_NS_10StatusCodeEDpOT_(ptr dead_on_unwind writable sret(%"class.arrow::Status") align 8 %0, i8 noundef signext 10, ptr noundef nonnull align 1 dereferenceable(11) %11, ptr noundef nonnull align 8 dereferenceable(32) %12, ptr noundef nonnull align 1 dereferenceable(38) %13, ptr noundef nonnull align 8 dereferenceable(32) %14)
  ret void
}

; Function Attrs: mustprogress nounwind uwtable
define linkonce_odr noundef nonnull align 8 dereferenceable(32) ptr @_ZNK5arrow7compute8Function4nameB5cxx11Ev(ptr noundef nonnull align 8 dereferenceable(192) %0) #0 comdat align 2 {
  %2 = alloca ptr, align 8
  store ptr %0, ptr %2, align 8, !tbaa !97
  %3 = load ptr, ptr %2, align 8
  %4 = getelementptr inbounds nuw %"class.arrow::compute::Function", ptr %3, i32 0, i32 1
  ret ptr %4
}

; Function Attrs: mustprogress uwtable
define void @_ZN5arrow7compute6detail16NoMatchingKernelEPKNS0_8FunctionERKSt6vectorINS_10TypeHolderESaIS6_EE(ptr dead_on_unwind noalias writable sret(%"class.arrow::Status") align 8 %0, ptr noundef %1, ptr noundef nonnull align 8 dereferenceable(24) %2) #1 personality ptr @__gxx_personality_v0 {
  %4 = alloca ptr, align 8
  %5 = alloca ptr, align 8
  %6 = alloca ptr, align 8
  %7 = alloca %"class.std::__cxx11::basic_string", align 8
  %8 = alloca ptr, align 8
  %9 = alloca i32, align 4
  store ptr %0, ptr %4, align 8
  store ptr %1, ptr %5, align 8, !tbaa !97
  store ptr %2, ptr %6, align 8, !tbaa !102
  %10 = load ptr, ptr %5, align 8, !tbaa !97
  %11 = call noundef nonnull align 8 dereferenceable(32) ptr @_ZNK5arrow7compute8Function4nameB5cxx11Ev(ptr noundef nonnull align 8 dereferenceable(192) %10)
  call void @llvm.lifetime.start.p0(i64 32, ptr %7) #9
  %12 = load ptr, ptr %6, align 8, !tbaa !102
  call void @_ZN5arrow10TypeHolder8ToStringB5cxx11ERKSt6vectorIS0_SaIS0_EEb(ptr dead_on_unwind writable sret(%"class.std::__cxx11::basic_string") align 8 %7, ptr noundef nonnull align 8 dereferenceable(24) %12, i1 noundef zeroext false)
  invoke void @_ZN5arrow6Status14NotImplementedIJRA11_KcRKNSt7__cxx1112basic_stringIcSt11char_traitsIcESaIcEEERA38_S2_SA_EEES0_DpOT_(ptr dead_on_unwind writable sret(%"class.arrow::Status") align 8 %0, ptr noundef nonnull align 1 dereferenceable(11) @.str.2, ptr noundef nonnull align 8 dereferenceable(32) %11, ptr noundef nonnull align 1 dereferenceable(38) @.str.3, ptr noundef nonnull align 8 dereferenceable(32) %7)
          to label %13 unwind label %14

13:                                               ; preds = %3
  call void @_ZNSt7__cxx1112basic_stringIcSt11char_traitsIcESaIcEED2Ev(ptr noundef nonnull align 8 dereferenceable(32) %7) #9
  call void @llvm.lifetime.end.p0(i64 32, ptr %7) #9
  ret void

14:                                               ; preds = %3
  %15 = landingpad { ptr, i32 }
          cleanup
  %16 = extractvalue { ptr, i32 } %15, 0
  store ptr %16, ptr %8, align 8
  %17 = extractvalue { ptr, i32 } %15, 1
  store i32 %17, ptr %9, align 4
  call void @_ZNSt7__cxx1112basic_stringIcSt11char_traitsIcESaIcEED2Ev(ptr noundef nonnull align 8 dereferenceable(32) %7) #9
  call void @llvm.lifetime.end.p0(i64 32, ptr %7) #9
  br label %18

18:                                               ; preds = %14
  %19 = load ptr, ptr %8, align 8
  %20 = load i32, ptr %9, align 4
  %21 = insertvalue { ptr, i32 } poison, ptr %19, 0
  %22 = insertvalue { ptr, i32 } %21, i32 %20, 1
  resume { ptr, i32 } %22
}